target datalayout = "e-m:e-p270:32:32-p271:32:32-p272:64:64-i64:64-i128:128-f80:128-n8:16:32:64-S128"
target triple = "x86_64-pc-linux-gnu"

@bio_err = external global ptr, align 8
@.str.116 = private unnamed_addr constant [2 x i8] c"r\00", align 1
@.str.117 = private unnamed_addr constant [15 x i8] c"Out of memory\0A\00", align 1
@.str.118 = private unnamed_addr constant [45 x i8] c"Error creating random number to store in %s\0A\00", align 1
@.str.119 = private unnamed_addr constant [31 x i8] c"Unable to load number from %s\0A\00", align 1
@.str.120 = private unnamed_addr constant [44 x i8] c"Error converting number from bin to BIGNUM\0A\00", align 1

; Function Attrs: nounwind uwtable
define dso_local i32 @rand_serial(ptr noundef %0, ptr noundef %1) #0 {
  %3 = alloca i32, align 4
  %4 = alloca ptr, align 8
  %5 = alloca ptr, align 8
  %6 = alloca ptr, align 8
  %7 = alloca i32, align 4
  %8 = alloca i32, align 4
  store ptr %0, ptr %4, align 8, !tbaa !109
  store ptr %1, ptr %5, align 8, !tbaa !117
  call void @llvm.lifetime.start.p0(i64 8, ptr %6) #12
  call void @llvm.lifetime.start.p0(i64 4, ptr %7) #12
  store i32 0, ptr %7, align 4, !tbaa !25
  %9 = load ptr, ptr %4, align 8, !tbaa !109
  %10 = icmp eq ptr %9, null
  br i1 %10, label %11, label %13

11:                                               ; preds = %2
  %12 = call ptr @BN_new()
  br label %15

13:                                               ; preds = %2
  %14 = load ptr, ptr %4, align 8, !tbaa !109
  br label %15

15:                                               ; preds = %13, %11
  %16 = phi ptr [ %12, %11 ], [ %14, %13 ]
  store ptr %16, ptr %6, align 8, !tbaa !109
  %17 = load ptr, ptr %6, align 8, !tbaa !109
  %18 = icmp eq ptr %17, null
  br i1 %18, label %19, label %20

19:                                               ; preds = %15
  store i32 0, ptr %3, align 4
  store i32 1, ptr %8, align 4
  br label %43

20:                                               ; preds = %15
  %21 = load ptr, ptr %6, align 8, !tbaa !109
  %22 = call i32 @BN_rand(ptr noundef %21, i32 noundef 159, i32 noundef -1, i32 noundef 0)
  %23 = icmp ne i32 %22, 0
  br i1 %23, label %25, label %24

24:                                               ; preds = %20
  br label %35

25:                                               ; preds = %20
  %26 = load ptr, ptr %5, align 8, !tbaa !117
  %27 = icmp ne ptr %26, null
  br i1 %27, label %28, label %34

28:                                               ; preds = %25
  %29 = load ptr, ptr %6, align 8, !tbaa !109
  %30 = load ptr, ptr %5, align 8, !tbaa !117
  %31 = call ptr @BN_to_ASN1_INTEGER(ptr noundef %29, ptr noundef %30)
  %32 = icmp ne ptr %31, null
  br i1 %32, label %34, label %33

33:                                               ; preds = %28
  br label %35

34:                                               ; preds = %28, %25
  store i32 1, ptr %7, align 4, !tbaa !25
  br label %35

35:                                               ; preds = %34, %33, %24
  %36 = load ptr, ptr %6, align 8, !tbaa !109
  %37 = load ptr, ptr %4, align 8, !tbaa !109
  %38 = icmp ne ptr %36, %37
  br i1 %38, label %39, label %41

39:                                               ; preds = %35
  %40 = load ptr, ptr %6, align 8, !tbaa !109
  call void @BN_free(ptr noundef %40)
  br label %41

41:                                               ; preds = %39, %35
  %42 = load i32, ptr %7, align 4, !tbaa !25
  store i32 %42, ptr %3, align 4
  store i32 1, ptr %8, align 4
  br label %43

43:                                               ; preds = %41, %19
  call void @llvm.lifetime.end.p0(i64 4, ptr %7) #12
  call void @llvm.lifetime.end.p0(i64 8, ptr %6) #12
  %44 = load i32, ptr %3, align 4
  ret i32 %44
}

; Function Attrs: nounwind uwtable
define dso_local ptr @load_serial(ptr noundef %0, ptr noundef %1, i32 noundef %2, ptr noundef %3) #0 {
  %5 = alloca ptr, align 8
  %6 = alloca ptr, align 8
  %7 = alloca i32, align 4
  %8 = alloca ptr, align 8
  %9 = alloca ptr, align 8
  %10 = alloca ptr, align 8
  %11 = alloca [1024 x i8], align 16
  %12 = alloca ptr, align 8
  store ptr %0, ptr %5, align 8, !tbaa !9
  store ptr %1, ptr %6, align 8, !tbaa !99
  store i32 %2, ptr %7, align 4, !tbaa !25
  store ptr %3, ptr %8, align 8, !tbaa !115
  call void @llvm.lifetime.start.p0(i64 8, ptr %9) #12
  store ptr null, ptr %9, align 8, !tbaa !35
  call void @llvm.lifetime.start.p0(i64 8, ptr %10) #12
  store ptr null, ptr %10, align 8, !tbaa !109
  call void @llvm.lifetime.start.p0(i64 1024, ptr %11) #12
  call void @llvm.lifetime.start.p0(i64 8, ptr %12) #12
  store ptr null, ptr %12, align 8, !tbaa !117
  %13 = call ptr @ASN1_INTEGER_new()
  store ptr %13, ptr %12, align 8, !tbaa !117
  %14 = load ptr, ptr %12, align 8, !tbaa !117
  %15 = icmp eq ptr %14, null
  br i1 %15, label %16, label %17

16:                                               ; preds = %4
  br label %83

17:                                               ; preds = %4
  %18 = load ptr, ptr %5, align 8, !tbaa !9
  %19 = call ptr @BIO_new_file(ptr noundef %18, ptr noundef @.str.116)
  store ptr %19, ptr %9, align 8, !tbaa !35
  %20 = load ptr, ptr %6, align 8, !tbaa !99
  %21 = icmp ne ptr %20, null
  br i1 %21, label %22, label %27

22:                                               ; preds = %17
  %23 = load ptr, ptr %9, align 8, !tbaa !35
  %24 = icmp ne ptr %23, null
  %25 = zext i1 %24 to i32
  %26 = load ptr, ptr %6, align 8, !tbaa !99
  store i32 %25, ptr %26, align 4, !tbaa !25
  br label %27

27:                                               ; preds = %22, %17
  %28 = load ptr, ptr %9, align 8, !tbaa !35
  %29 = icmp eq ptr %28, null
  br i1 %29, label %30, label %54

30:                                               ; preds = %27
  %31 = load i32, ptr %7, align 4, !tbaa !25
  %32 = icmp ne i32 %31, 0
  br i1 %32, label %35, label %33

33:                                               ; preds = %30
  %34 = load ptr, ptr %5, align 8, !tbaa !9
  call void @perror(ptr noundef %34)
  br label %83

35:                                               ; preds = %30
  call void @ERR_clear_error()
  %36 = call ptr @BN_new()
  store ptr %36, ptr %10, align 8, !tbaa !109
  %37 = load ptr, ptr %10, align 8, !tbaa !109
  %38 = icmp eq ptr %37, null
  br i1 %38, label %39, label %42

39:                                               ; preds = %35
  %40 = load ptr, ptr @bio_err, align 8, !tbaa !35
  %41 = call i32 (ptr, ptr, ...) @BIO_printf(ptr noundef %40, ptr noundef @.str.117)
  br label %53

42:                                               ; preds = %35
  %43 = load ptr, ptr %10, align 8, !tbaa !109
  %44 = load ptr, ptr %12, align 8, !tbaa !117
  %45 = call i32 @rand_serial(ptr noundef %43, ptr noundef %44)
  %46 = icmp ne i32 %45, 0
  br i1 %46, label %52, label %47

47:                                               ; preds = %42
  %48 = load ptr, ptr @bio_err, align 8, !tbaa !35
  %49 = load ptr, ptr %5, align 8, !tbaa !9
  %50 = call i32 (ptr, ptr, ...) @BIO_printf(ptr noundef %48, ptr noundef @.str.118, ptr noundef %49)
  %51 = load ptr, ptr %10, align 8, !tbaa !109
  call void @BN_free(ptr noundef %51)
  store ptr null, ptr %10, align 8, !tbaa !109
  br label %52

52:                                               ; preds = %47, %42
  br label %53

53:                                               ; preds = %52, %39
  br label %73

54:                                               ; preds = %27
  %55 = load ptr, ptr %9, align 8, !tbaa !35
  %56 = load ptr, ptr %12, align 8, !tbaa !117
  %57 = getelementptr inbounds [1024 x i8], ptr %11, i64 0, i64 0
  %58 = call i32 @a2i_ASN1_INTEGER(ptr noundef %55, ptr noundef %56, ptr noundef %57, i32 noundef 1024)
  %59 = icmp ne i32 %58, 0
  br i1 %59, label %64, label %60

60:                                               ; preds = %54
  %61 = load ptr, ptr @bio_err, align 8, !tbaa !35
  %62 = load ptr, ptr %5, align 8, !tbaa !9
  %63 = call i32 (ptr, ptr, ...) @BIO_printf(ptr noundef %61, ptr noundef @.str.119, ptr noundef %62)
  br label %83

64:                                               ; preds = %54
  %65 = load ptr, ptr %12, align 8, !tbaa !117
  %66 = call ptr @ASN1_INTEGER_to_BN(ptr noundef %65, ptr noundef null)
  store ptr %66, ptr %10, align 8, !tbaa !109
  %67 = load ptr, ptr %10, align 8, !tbaa !109
  %68 = icmp eq ptr %67, null
  br i1 %68, label %69, label %72

69:                                               ; preds = %64
  %70 = load ptr, ptr @bio_err, align 8, !tbaa !35
  %71 = call i32 (ptr, ptr, ...) @BIO_printf(ptr noundef %70, ptr noundef @.str.120)
  br label %83

72:                                               ; preds = %64
  br label %73

73:                                               ; preds = %72, %53
  %74 = load ptr, ptr %10, align 8, !tbaa !109
  %75 = icmp ne ptr %74, null
  br i1 %75, label %76, label %82

76:                                               ; preds = %73
  %77 = load ptr, ptr %8, align 8, !tbaa !115
  %78 = icmp ne ptr %77, null
  br i1 %78, label %79, label %82

79:                                               ; preds = %76
  %80 = load ptr, ptr %12, align 8, !tbaa !117
  %81 = load ptr, ptr %8, align 8, !tbaa !115
  store ptr %80, ptr %81, align 8, !tbaa !117
  store ptr null, ptr %12, align 8, !tbaa !117
  br label %82

82:                                               ; preds = %79, %76, %73
  br label %83

83:                                               ; preds = %82, %69, %60, %33, %16
  %84 = load ptr, ptr %10, align 8, !tbaa !109
  %85 = icmp eq ptr %84, null
  br i1 %85, label %86, label %88

86:                                               ; preds = %83
  %87 = load ptr, ptr @bio_err, align 8, !tbaa !35
  call void @ERR_print_errors(ptr noundef %87)
  br label %88

88:                                               ; preds = %86, %83
  %89 = load ptr, ptr %9, align 8, !tbaa !35
  %90 = call i32 @BIO_free(ptr noundef %89)
  %91 = load ptr, ptr %12, align 8, !tbaa !117
  call void @ASN1_INTEGER_free(ptr noundef %91)
  %92 = load ptr, ptr %10, align 8, !tbaa !109
  call void @llvm.lifetime.end.p0(i64 8, ptr %12) #12
  call void @llvm.lifetime.end.p0(i64 1024, ptr %11) #12
  call void @llvm.lifetime.end.p0(i64 8, ptr %10) #12
  call void @llvm.lifetime.end.p0(i64 8, ptr %9) #12
  ret ptr %92
}