; Function Attrs: nounwind uwtable
define dso_local ptr @load_serial(ptr noundef %0, ptr noundef writeonly captures(address_is_null) %1, i32 noundef %2, ptr noundef writeonly captures(address_is_null) %3) local_unnamed_addr #0 {
  %5 = alloca [1024 x i8], align 16
  call void @llvm.lifetime.start.p0(i64 1024, ptr nonnull %5) #27
  %6 = tail call ptr @ASN1_INTEGER_new() #27
  %7 = icmp eq ptr %6, null
  br i1 %7, label %.thread, label %8

8:                                                ; preds = %4
  %9 = tail call ptr @BIO_new_file(ptr noundef %0, ptr noundef nonnull @.str.116) #27
  %.not = icmp eq ptr %1, null
  br i1 %.not, label %13, label %10

10:                                               ; preds = %8
  %11 = icmp ne ptr %9, null
  %12 = zext i1 %11 to i32
  store i32 %12, ptr %1, align 4, !tbaa !30
  br label %13

13:                                               ; preds = %10, %8
  %14 = icmp eq ptr %9, null
  br i1 %14, label %15, label %27

15:                                               ; preds = %13
  %.not39 = icmp eq i32 %2, 0
  br i1 %.not39, label %16, label %17

16:                                               ; preds = %15
  tail call void @perror(ptr noundef %0) #32
  br label %.thread

17:                                               ; preds = %15
  tail call void @ERR_clear_error() #27
  %18 = tail call ptr @BN_new() #27
  %19 = icmp eq ptr %18, null
  br i1 %19, label %20, label %.thread.i

20:                                               ; preds = %17
  %21 = load ptr, ptr @bio_err, align 8, !tbaa !26
  %22 = tail call i32 (ptr, ptr, ...) @BIO_printf(ptr noundef %21, ptr noundef nonnull @.str.117) #27
  br label %.thread

.thread.i:                                        ; preds = %17
  %23 = tail call i32 @BN_rand(ptr noundef nonnull %18, i32 noundef 159, i32 noundef -1, i32 noundef 0) #27
  %.not.i = icmp eq i32 %23, 0
  br i1 %.not.i, label %.critedge, label %rand_serial.exit

rand_serial.exit:                                 ; preds = %.thread.i
  %24 = tail call ptr @BN_to_ASN1_INTEGER(ptr noundef nonnull %18, ptr noundef nonnull %6) #27
  %.not16.i.not = icmp eq ptr %24, null
  br i1 %.not16.i.not, label %.critedge, label %38

.critedge:                                        ; preds = %.thread.i, %rand_serial.exit
  %25 = load ptr, ptr @bio_err, align 8, !tbaa !26
  %26 = tail call i32 (ptr, ptr, ...) @BIO_printf(ptr noundef %25, ptr noundef nonnull @.str.118, ptr noundef %0) #27
  tail call void @BN_free(ptr noundef nonnull %18) #27
  br label %.thread

27:                                               ; preds = %13
  %28 = call i32 @a2i_ASN1_INTEGER(ptr noundef nonnull %9, ptr noundef nonnull %6, ptr noundef nonnull %5, i32 noundef 1024) #27
  %.not38 = icmp eq i32 %28, 0
  br i1 %.not38, label %29, label %32

29:                                               ; preds = %27
  %30 = load ptr, ptr @bio_err, align 8, !tbaa !26
  %31 = call i32 (ptr, ptr, ...) @BIO_printf(ptr noundef %30, ptr noundef nonnull @.str.119, ptr noundef %0) #27
  br label %.thread

32:                                               ; preds = %27
  %33 = call ptr @ASN1_INTEGER_to_BN(ptr noundef nonnull %6, ptr noundef null) #27
  %34 = icmp eq ptr %33, null
  br i1 %34, label %35, label %38

35:                                               ; preds = %32
  %36 = load ptr, ptr @bio_err, align 8, !tbaa !26
  %37 = call i32 (ptr, ptr, ...) @BIO_printf(ptr noundef %36, ptr noundef nonnull @.str.120) #27
  br label %.thread

38:                                               ; preds = %32, %rand_serial.exit
  %.1 = phi ptr [ %18, %rand_serial.exit ], [ %33, %32 ]
  %.not54 = icmp eq ptr %3, null
  br i1 %.not54, label %41, label %39

39:                                               ; preds = %38
  store ptr %6, ptr %3, align 8, !tbaa !67
  br label %41

.thread:                                          ; preds = %.critedge, %20, %4, %16, %35, %29
  %.027.ph = phi ptr [ %9, %29 ], [ %9, %35 ], [ null, %16 ], [ null, %4 ], [ null, %20 ], [ null, %.critedge ]
  %40 = load ptr, ptr @bio_err, align 8, !tbaa !26
  call void @ERR_print_errors(ptr noundef %40) #27
  br label %41

41:                                               ; preds = %39, %38, %.thread
  %.052 = phi ptr [ %6, %.thread ], [ null, %39 ], [ %6, %38 ]
  %.02650 = phi ptr [ null, %.thread ], [ %.1, %39 ], [ %.1, %38 ]
  %.02748 = phi ptr [ %.027.ph, %.thread ], [ %9, %39 ], [ %9, %38 ]
  %42 = call i32 @BIO_free(ptr noundef %.02748) #27
  call void @ASN1_INTEGER_free(ptr noundef %.052) #27
  call void @llvm.lifetime.end.p0(i64 1024, ptr nonnull %5) #27
  ret ptr %.02650
}